#include <math.h>
#include <stdio.h>
#include <stdlib.h>
#include <string.h>

int main(){
int n,i=0,j;
double s[100];
int num;
double A=0,a;
double b[1000];
scanf("%d",&n);
for(i=0;i<n;i++){
    scanf("%d",&num);
	A=0;
	for(j=0;j<num;j++){
	scanf("%lf",&b[j]);
	A+=b[j];
	}
	a=A/num;
    s[i]=0;
    for(j=0;j<num;j++){
	s[i]+=(b[j]-a)*(b[j]-a);
	}
	s[i]=(s[i]/num);
	s[i]=sqrt(s[i]);

}
for(i=0;i<n;i++){
printf("%.5lf\n",s[i]);
}
    return 0;
	
}